#include <math.h>
#include <stdio.h>
#include <stdlib.h>
#include <string.h>
#include <iostream>
using namespace std;

int main()
{
    int A, B, C, D ,E, count=0;
    
    cout<<"5"<<" "<<"2"<<" "<<"1"<<" "<<"3"<<" "<<"4"<<endl;
    
    
    return 0;
    }
